	.file	"types.c"
# GNU C17 (Debian 14.2.0-16) version 14.2.0 (x86_64-linux-gnu)
#	compiled by GNU C version 14.2.0, GMP version 6.3.0, MPFR version 4.2.1, MPC version 1.3.1, isl version isl-0.27-GMP

# GGC heuristics: --param ggc-min-expand=100 --param ggc-min-heapsize=131072
# options passed: -m32 -mtune=generic -march=i686 -g -O2 -fasynchronous-unwind-tables
	.text
.Ltext0:
	.file 0 "/home/evaristo_estella/Documents/Maestria/M5-Ingenieria-Inversa/imf_m5_rev_eng/Cap\303\255tulo 2: Compiladores/2.8 An\303\241lisis Sem\303\241ntico" "types.c"
	.section	.rodata.str1.4,"aMS",@progbits,1
	.align 4
.LC0:
	.string	"Size of char: %d (MAX: %d, MIN: %d)\n"
	.align 4
.LC1:
	.string	"Size of unsigned char: %d (MAX: %d, MIN: %d)\n"
	.align 4
.LC2:
	.string	"Size of short: %d (MAX: %d, MIN: %d)\n"
	.align 4
.LC3:
	.string	"Size of unsigned short: %d (MAX: %d, MIN: %d)\n"
	.align 4
.LC4:
	.string	"Size of int: %d (MAX: %d, MIN: %d)\n"
	.align 4
.LC5:
	.string	"Size of unsigned int: %d (MAX: %d, MIN: %d)\n"
	.align 4
.LC6:
	.string	"Size of long: %d (MAX: %ld, MIN: %ld)\n"
	.align 4
.LC7:
	.string	"Size of unsigned long: %d (MAX: %lu, MIN: %d)\n"
	.section	.text.startup,"ax",@progbits
	.p2align 4
	.globl	main
	.type	main, @function
main:
.LFB11:
	.file 1 "types.c"
	.loc 1 4 16 view -0
	.cfi_startproc
	.loc 1 5 5 view .LVU1
.LVL0:
	.loc 1 6 5 view .LVU2
	.loc 1 7 5 view .LVU3
	.loc 1 8 5 view .LVU4
	.loc 1 9 5 view .LVU5
	.loc 1 10 5 view .LVU6
	.loc 1 11 5 view .LVU7
	.loc 1 12 5 view .LVU8
	.loc 1 14 5 view .LVU9
# types.c:4: int main(void) {
	.loc 1 4 16 is_stmt 0 view .LVU10
	leal	4(%esp), %ecx	#,
	.cfi_def_cfa 1, 0
	andl	$-16, %esp	#,
	pushl	-4(%ecx)	#
	pushl	%ebp	#
	movl	%esp, %ebp	#,
	.cfi_escape 0x10,0x5,0x2,0x75,0
	pushl	%ebx	#
	.cfi_escape 0x10,0x3,0x2,0x75,0x7c
	call	__x86.get_pc_thunk.bx	#
	addl	$_GLOBAL_OFFSET_TABLE_, %ebx	# tmp98,
	pushl	%ecx	#
	.cfi_escape 0xf,0x3,0x75,0x78,0x6
# types.c:14:     printf("Size of char: %d (MAX: %d, MIN: %d)\n", sizeof(var5), CHAR_MAX, CHAR_MIN);
	.loc 1 14 5 view .LVU11
	pushl	$-128	#
	pushl	$127	#
	pushl	$1	#
	leal	.LC0@GOTOFF(%ebx), %eax	#, tmp100
	pushl	%eax	# tmp100
	call	printf@PLT	#
.LVL1:
	.loc 1 15 5 is_stmt 1 view .LVU12
	leal	.LC1@GOTOFF(%ebx), %eax	#, tmp101
	pushl	$0	#
	pushl	$255	#
	pushl	$1	#
	pushl	%eax	# tmp101
	call	printf@PLT	#
.LVL2:
	.loc 1 16 5 view .LVU13
	addl	$32, %esp	#,
	leal	.LC2@GOTOFF(%ebx), %eax	#, tmp102
	pushl	$-32768	#
	pushl	$32767	#
	pushl	$2	#
	pushl	%eax	# tmp102
	call	printf@PLT	#
.LVL3:
	.loc 1 17 5 view .LVU14
	leal	.LC3@GOTOFF(%ebx), %eax	#, tmp103
	pushl	$0	#
	pushl	$65535	#
	pushl	$2	#
	pushl	%eax	# tmp103
	call	printf@PLT	#
.LVL4:
	.loc 1 18 5 view .LVU15
	addl	$32, %esp	#,
	leal	.LC4@GOTOFF(%ebx), %eax	#, tmp104
	pushl	$-2147483648	#
	pushl	$2147483647	#
	pushl	$4	#
	pushl	%eax	# tmp104
	call	printf@PLT	#
.LVL5:
	.loc 1 19 5 view .LVU16
	leal	.LC5@GOTOFF(%ebx), %eax	#, tmp105
	pushl	$0	#
	pushl	$-1	#
	pushl	$4	#
	pushl	%eax	# tmp105
	call	printf@PLT	#
.LVL6:
	.loc 1 20 5 view .LVU17
	addl	$32, %esp	#,
	leal	.LC6@GOTOFF(%ebx), %eax	#, tmp106
	pushl	$-2147483648	#
	pushl	$2147483647	#
	pushl	$4	#
	pushl	%eax	# tmp106
	call	printf@PLT	#
.LVL7:
	.loc 1 21 5 view .LVU18
	leal	.LC7@GOTOFF(%ebx), %eax	#, tmp107
	pushl	$0	#
	pushl	$-1	#
	pushl	$4	#
	pushl	%eax	# tmp107
	call	printf@PLT	#
.LVL8:
	addl	$32, %esp	#,
# types.c:22: }
	.loc 1 22 1 is_stmt 0 view .LVU20
	leal	-8(%ebp), %esp	#,
	xorl	%eax, %eax	#
	popl	%ecx	#
	.cfi_restore 1
	.cfi_def_cfa 1, 0
	popl	%ebx	#
	.cfi_restore 3
	popl	%ebp	#
	.cfi_restore 5
	leal	-4(%ecx), %esp	#,
	.cfi_def_cfa 4, 4
	ret	
	.cfi_endproc
.LFE11:
	.size	main, .-main
	.section	.text.__x86.get_pc_thunk.bx,"axG",@progbits,__x86.get_pc_thunk.bx,comdat
	.globl	__x86.get_pc_thunk.bx
	.hidden	__x86.get_pc_thunk.bx
	.type	__x86.get_pc_thunk.bx, @function
__x86.get_pc_thunk.bx:
.LFB12:
	.cfi_startproc
	movl	(%esp), %ebx	#,
	ret
	.cfi_endproc
.LFE12:
	.text
.Letext0:
	.file 2 "/usr/include/stdio.h"
	.section	.note.GNU-stack,"",@progbits
